target datalayout = "e-m:e-p270:32:32-p271:32:32-p272:64:64-i64:64-i128:128-f80:128-n8:16:32:64-S128"
target triple = "x86_64-pc-linux-gnu"

@log_destination = internal global i32 -1, align 4
@stderr = external global ptr, align 8
@.str.59 = private unnamed_addr constant [3 x i8] c"%s\00", align 1
@.str.60 = private unnamed_addr constant [7 x i8] c"[%lu] \00", align 1
@.str.61 = private unnamed_addr constant [9 x i8] c"daemon.c\00", align 1
@.str.62 = private unnamed_addr constant [42 x i8] c"log destination not initialized correctly\00", align 1

; Function Attrs: nounwind uwtable
define internal void @logreport(i32 noundef %0, ptr noundef %1, ptr noundef %2) #0 {
  %4 = alloca i32, align 4
  %5 = alloca ptr, align 8
  %6 = alloca ptr, align 8
  %7 = alloca [1024 x i8], align 16
  store i32 %0, ptr %4, align 4, !tbaa !4
  store ptr %1, ptr %5, align 8, !tbaa !11
  store ptr %2, ptr %6, align 8, !tbaa !35
  %8 = load i32, ptr @log_destination, align 4, !tbaa !4
  switch i32 %8, label %30 [
    i32 2, label %9
    i32 1, label %16
    i32 0, label %30
    i32 -1, label %29
  ]

9:                                                ; preds = %3
  call void @llvm.lifetime.start.p0(i64 1024, ptr %7) #13
  %10 = getelementptr inbounds [1024 x i8], ptr %7, i64 0, i64 0
  %11 = load ptr, ptr %5, align 8, !tbaa !11
  %12 = load ptr, ptr %6, align 8, !tbaa !35
  %13 = call i32 @vsnprintf(ptr noundef %10, i64 noundef 1024, ptr noundef %11, ptr noundef %12) #13
  %14 = load i32, ptr %4, align 4, !tbaa !4
  %15 = getelementptr inbounds [1024 x i8], ptr %7, i64 0, i64 0
  call void (i32, ptr, ...) @syslog(i32 noundef %14, ptr noundef @.str.59, ptr noundef %15)
  call void @llvm.lifetime.end.p0(i64 1024, ptr %7) #13
  br label %30

16:                                               ; preds = %3
  %17 = load ptr, ptr @stderr, align 8, !tbaa !20
  %18 = call i32 @getpid() #13
  %19 = sext i32 %18 to i64
  %20 = call i32 (ptr, ptr, ...) @fprintf(ptr noundef %17, ptr noundef @.str.60, i64 noundef %19) #13
  %21 = load ptr, ptr @stderr, align 8, !tbaa !20
  %22 = load ptr, ptr %5, align 8, !tbaa !11
  %23 = load ptr, ptr %6, align 8, !tbaa !35
  %24 = call i32 @vfprintf(ptr noundef %21, ptr noundef %22, ptr noundef %23) #13
  %25 = load ptr, ptr @stderr, align 8, !tbaa !20
  %26 = call i32 @fputc(i32 noundef 10, ptr noundef %25)
  %27 = load ptr, ptr @stderr, align 8, !tbaa !20
  %28 = call i32 @fflush(ptr noundef %27)
  br label %30

29:                                               ; preds = %3
  call void (ptr, i32, ptr, ...) @BUG_fl(ptr noundef @.str.61, i32 noundef 118, ptr noundef @.str.62) #15
  unreachable

30:                                               ; preds = %3, %3, %16, %9
  ret void
}