; Function Attrs: nounwind uwtable
define internal fastcc void @logreport(i32 noundef range(i32 3, 7) %0, ptr noundef readonly captures(none) %1, ptr noundef %2) unnamed_addr #0 {
  %4 = alloca [1024 x i8], align 16
  %5 = load i32, ptr @log_destination, align 4, !tbaa !12
  switch i32 %5, label %20 [
    i32 2, label %6
    i32 1, label %8
    i32 -1, label %19
  ]

6:                                                ; preds = %3
  call void @llvm.lifetime.start.p0(i64 1024, ptr nonnull %4) #21
  %7 = call i32 @vsnprintf(ptr noundef nonnull %4, i64 noundef 1024, ptr noundef %1, ptr noundef %2) #21
  call void (i32, ptr, ...) @syslog(i32 noundef %0, ptr noundef nonnull @.str.59, ptr noundef nonnull %4) #21
  call void @llvm.lifetime.end.p0(i64 1024, ptr nonnull %4) #21
  br label %20

8:                                                ; preds = %3
  %9 = load ptr, ptr @stderr, align 8, !tbaa !17
  %10 = tail call i32 @getpid() #21
  %11 = sext i32 %10 to i64
  %12 = tail call i32 (ptr, ptr, ...) @fprintf(ptr noundef %9, ptr noundef nonnull @.str.60, i64 noundef %11) #25
  %13 = load ptr, ptr @stderr, align 8, !tbaa !17
  %14 = tail call i32 @vfprintf(ptr noundef %13, ptr noundef %1, ptr noundef %2) #25
  %15 = load ptr, ptr @stderr, align 8, !tbaa !17
  %16 = tail call i32 @fputc(i32 noundef 10, ptr noundef %15)
  %17 = load ptr, ptr @stderr, align 8, !tbaa !17
  %18 = tail call i32 @fflush(ptr noundef %17)
  br label %20

19:                                               ; preds = %3
  tail call void (ptr, i32, ptr, ...) @BUG_fl(ptr noundef nonnull @.str.61, i32 noundef 118, ptr noundef nonnull @.str.62) #23
  unreachable

20:                                               ; preds = %8, %6, %3
  ret void
}